target datalayout = "e-m:e-p270:32:32-p271:32:32-p272:64:64-i64:64-i128:128-f80:128-n8:16:32:64-S128"
target triple = "x86_64-pc-linux-gnu"

@.str.3 = private unnamed_addr constant [2 x i8] c"\0A\00", align 1
@.str.4 = private unnamed_addr constant [43 x i8] c"    write_intersynth [options] [filename]\0A\00", align 1
@.str.5 = private unnamed_addr constant [73 x i8] c"Write the current design to an 'intersynth' netlist file. InterSynth is\0A\00", align 1
@.str.6 = private unnamed_addr constant [64 x i8] c"a tool for Coarse-Grain Example-Driven Interconnect Synthesis.\0A\00", align 1
@.str.7 = private unnamed_addr constant [14 x i8] c"    -notypes\0A\00", align 1
@.str.8 = private unnamed_addr constant [76 x i8] c"        do not generate celltypes and conntypes commands. i.e. just output\0A\00", align 1
@.str.9 = private unnamed_addr constant [63 x i8] c"        the netlists. this is used for postsilicon synthesis.\0A\00", align 1
@.str.10 = private unnamed_addr constant [34 x i8] c"    -lib <verilog_or_rtlil_file>\0A\00", align 1
@.str.11 = private unnamed_addr constant [79 x i8] c"        Use the specified library file for determining whether cell ports are\0A\00", align 1
@.str.12 = private unnamed_addr constant [78 x i8] c"        inputs or outputs. This option can be used multiple times to specify\0A\00", align 1
@.str.13 = private unnamed_addr constant [32 x i8] c"        more than one library.\0A\00", align 1
@.str.14 = private unnamed_addr constant [15 x i8] c"    -selected\0A\00", align 1
@.str.15 = private unnamed_addr constant [75 x i8] c"        only write selected modules. modules must be selected entirely or\0A\00", align 1
@.str.16 = private unnamed_addr constant [21 x i8] c"        not at all.\0A\00", align 1
@.str.17 = private unnamed_addr constant [41 x i8] c"http://bygone.clairexen.net/intersynth/\0A\00", align 1

; Function Attrs: mustprogress uwtable
define internal void @_ZN12_GLOBAL__N_117IntersynthBackend4helpEv(ptr noundef nonnull align 8 dereferenceable(136) %0) unnamed_addr #4 align 2 {
  %2 = alloca ptr, align 8
  store ptr %0, ptr %2, align 8
  call void (ptr, ...) @_ZN5Yosys3logEPKcz(ptr noundef @.str.3)
  call void (ptr, ...) @_ZN5Yosys3logEPKcz(ptr noundef @.str.4)
  call void (ptr, ...) @_ZN5Yosys3logEPKcz(ptr noundef @.str.3)
  call void (ptr, ...) @_ZN5Yosys3logEPKcz(ptr noundef @.str.5)
  call void (ptr, ...) @_ZN5Yosys3logEPKcz(ptr noundef @.str.6)
  call void (ptr, ...) @_ZN5Yosys3logEPKcz(ptr noundef @.str.3)
  call void (ptr, ...) @_ZN5Yosys3logEPKcz(ptr noundef @.str.7)
  call void (ptr, ...) @_ZN5Yosys3logEPKcz(ptr noundef @.str.8)
  call void (ptr, ...) @_ZN5Yosys3logEPKcz(ptr noundef @.str.9)
  call void (ptr, ...) @_ZN5Yosys3logEPKcz(ptr noundef @.str.3)
  call void (ptr, ...) @_ZN5Yosys3logEPKcz(ptr noundef @.str.10)
  call void (ptr, ...) @_ZN5Yosys3logEPKcz(ptr noundef @.str.11)
  call void (ptr, ...) @_ZN5Yosys3logEPKcz(ptr noundef @.str.12)
  call void (ptr, ...) @_ZN5Yosys3logEPKcz(ptr noundef @.str.13)
  call void (ptr, ...) @_ZN5Yosys3logEPKcz(ptr noundef @.str.3)
  call void (ptr, ...) @_ZN5Yosys3logEPKcz(ptr noundef @.str.14)
  call void (ptr, ...) @_ZN5Yosys3logEPKcz(ptr noundef @.str.15)
  call void (ptr, ...) @_ZN5Yosys3logEPKcz(ptr noundef @.str.16)
  call void (ptr, ...) @_ZN5Yosys3logEPKcz(ptr noundef @.str.3)
  call void (ptr, ...) @_ZN5Yosys3logEPKcz(ptr noundef @.str.17)
  call void (ptr, ...) @_ZN5Yosys3logEPKcz(ptr noundef @.str.3)
  ret void
}